; Function Attrs: mustprogress nounwind willreturn uwtable
define void @N_VDestroy_Serial(ptr noundef captures(none) %0) #3 {
  %2 = load ptr, ptr %0, align 8, !tbaa !39
  %3 = getelementptr inbounds nuw i8, ptr %2, i64 8
  %4 = load i32, ptr %3, align 8, !tbaa !37
  %5 = icmp eq i32 %4, 1
  br i1 %5, label %6, label %11

6:                                                ; preds = %1
  %7 = getelementptr inbounds nuw i8, ptr %2, i64 16
  %8 = load ptr, ptr %7, align 8, !tbaa !38
  tail call void @free(ptr noundef %8) #18
  %9 = load ptr, ptr %0, align 8, !tbaa !39
  %10 = getelementptr inbounds nuw i8, ptr %9, i64 16
  store ptr null, ptr %10, align 8, !tbaa !38
  br label %11

11:                                               ; preds = %6, %1
  %12 = phi ptr [ %9, %6 ], [ %2, %1 ]
  tail call void @free(ptr noundef nonnull %12) #18
  store ptr null, ptr %0, align 8, !tbaa !39
  %13 = getelementptr inbounds nuw i8, ptr %0, i64 8
  %14 = load ptr, ptr %13, align 8, !tbaa !42
  tail call void @free(ptr noundef %14) #18
  tail call void @free(ptr noundef nonnull %0) #18
  ret void
}